; Function Attrs: mustprogress nofree norecurse nosync nounwind willreturn memory(read, inaccessiblemem: none) uwtable
define hidden ptr @mi_expand(ptr noundef %0, i64 noundef %1) local_unnamed_addr #4 {
  %3 = icmp eq ptr %0, null
  br i1 %3, label %26, label %4

4:                                                ; preds = %2
  %5 = ptrtoint ptr %0 to i64
  %6 = add i64 %5, -1
  %7 = and i64 %6, -4194304
  %8 = icmp slt i64 %6, 4194304
  %9 = icmp eq i64 %7, 0
  %10 = or i1 %8, %9
  br i1 %10, label %_mi_usable_size.exit, label %11, !prof !17

11:                                               ; preds = %4
  %12 = inttoptr i64 %7 to ptr
  %13 = sub i64 %5, %7
  %14 = getelementptr inbounds nuw i8, ptr %12, i64 144
  %15 = load i64, ptr %14, align 16, !tbaa !22
  %16 = lshr i64 %13, %15
  %17 = getelementptr inbounds nuw i8, ptr %12, i64 160
  %18 = getelementptr inbounds nuw [1 x %struct.mi_page_s], ptr %17, i64 0, i64 %16
  %19 = getelementptr i8, ptr %18, i64 6
  %.val.i = load i8, ptr %19, align 2
  %20 = and i8 %.val.i, 2
  %.not.i = icmp eq i8 %20, 0
  br i1 %.not.i, label %21, label %23, !prof !8

21:                                               ; preds = %11
  %22 = getelementptr i8, ptr %18, i64 32
  %.val12.i = load i64, ptr %22, align 16, !tbaa !21
  br label %_mi_usable_size.exit

23:                                               ; preds = %11
  %24 = tail call fastcc i64 @mi_page_usable_aligned_size_of(ptr noundef nonnull %18, ptr noundef nonnull %0) #20
  br label %_mi_usable_size.exit

_mi_usable_size.exit:                             ; preds = %4, %21, %23
  %.0.i = phi i64 [ 0, %4 ], [ %.val12.i, %21 ], [ %24, %23 ]
  %25 = icmp ugt i64 %1, %.0.i
  %. = select i1 %25, ptr null, ptr %0
  br label %26

26:                                               ; preds = %2, %_mi_usable_size.exit
  %.0 = phi ptr [ %., %_mi_usable_size.exit ], [ null, %2 ]
  ret ptr %.0
}